target datalayout = "e-m:e-p270:32:32-p271:32:32-p272:64:64-i64:64-i128:128-f80:128-n8:16:32:64-S128"
target triple = "x86_64-pc-linux-gnu"

%class.ErrorHandler = type <{ i32, i32, i8, i8, i8, i8, i8, i8, [2 x i8] }>
%class.RAROptions = type { i32, i32, i8, i8, i8, i64, [2048 x i32], [2048 x i32], i32, i8, [2048 x i32], [2048 x i32], i32, i32, i32, i32, [2048 x i32], [2048 x i32], i8, i8, i8, [2048 x i32], i32, i32, i32, i32, i32, i32, i32, i32, i8, i8, i8, i8, i8, i32, i32, i8, i8, i8, i8, i8, i32, i32, i64, i32, i8, i8, i8, i32, i32, i8, i8, i8, i8, i32, i32, i8, i8, i8, i8, [128 x i32], [128 x i32], i8, i8, i8, i8, i8, %class.RarTime, %class.RarTime, %class.RarTime, i8, i8, i8, %class.RarTime, %class.RarTime, %class.RarTime, i8, i8, i8, i64, i64, i8, i8, i8, [16 x %struct.FilterMode], [2048 x i32], i32, i32, i32, i32, i32, i32, i8, [2048 x i32], i32, [2048 x i32], i32, i32, i64, ptr, ptr, ptr }
%class.RarTime = type { i64 }
%struct.FilterMode = type { i32, i32, i32 }
%class.uiMsgStore = type <{ [8 x ptr], [8 x i32], i32, i32, i32, [4 x i8] }>

@ErrHandler = external global %class.ErrorHandler, align 4
@.str.3 = private unnamed_addr constant [1 x i32] zeroinitializer, align 4

; Function Attrs: mustprogress nounwind uwtable
define linkonce_odr noundef nonnull align 8 dereferenceable(108) ptr @_ZN10uiMsgStorelsEPKw(ptr noundef nonnull align 8 dereferenceable(108) %0, ptr noundef %1) #7 comdat align 2 {
  %3 = alloca ptr, align 8
  %4 = alloca ptr, align 8
  store ptr %0, ptr %3, align 8, !tbaa !132
  store ptr %1, ptr %4, align 8, !tbaa !8
  %5 = load ptr, ptr %3, align 8
  %6 = getelementptr inbounds nuw %class.uiMsgStore, ptr %5, i32 0, i32 2
  %7 = load i32, ptr %6, align 8, !tbaa !135
  %8 = zext i32 %7 to i64
  %9 = icmp ult i64 %8, 8
  br i1 %9, label %10, label %18

10:                                               ; preds = %2
  %11 = load ptr, ptr %4, align 8, !tbaa !8
  %12 = getelementptr inbounds nuw %class.uiMsgStore, ptr %5, i32 0, i32 0
  %13 = getelementptr inbounds nuw %class.uiMsgStore, ptr %5, i32 0, i32 2
  %14 = load i32, ptr %13, align 8, !tbaa !135
  %15 = add i32 %14, 1
  store i32 %15, ptr %13, align 8, !tbaa !135
  %16 = zext i32 %14 to i64
  %17 = getelementptr inbounds nuw [8 x ptr], ptr %12, i64 0, i64 %16
  store ptr %11, ptr %17, align 8, !tbaa !8
  br label %18

18:                                               ; preds = %10, %2
  ret ptr %5
}

; Function Attrs: inlinehint mustprogress nounwind uwtable
define linkonce_odr void @_Z9uiMsgBaseR10uiMsgStore(ptr noundef nonnull align 8 dereferenceable(108) %0) #4 comdat {
  %2 = alloca ptr, align 8
  store ptr %0, ptr %2, align 8, !tbaa !132
  ret void
}

; Function Attrs: mustprogress nounwind uwtable
define linkonce_odr void @_Z9uiMsgBaseIRPwJEEvR10uiMsgStoreOT_DpOT0_(ptr noundef nonnull align 8 dereferenceable(108) %0, ptr noundef nonnull align 8 dereferenceable(8) %1) #7 comdat {
  %3 = alloca ptr, align 8
  %4 = alloca ptr, align 8
  store ptr %0, ptr %3, align 8, !tbaa !132
  store ptr %1, ptr %4, align 8, !tbaa !34
  %5 = load ptr, ptr %3, align 8, !tbaa !132
  %6 = load ptr, ptr %4, align 8, !tbaa !34
  %7 = load ptr, ptr %6, align 8, !tbaa !8
  %8 = call noundef nonnull align 8 dereferenceable(108) ptr @_ZN10uiMsgStorelsEPKw(ptr noundef nonnull align 8 dereferenceable(108) %5, ptr noundef %7)
  %9 = load ptr, ptr %3, align 8, !tbaa !132
  call void @_Z9uiMsgBaseR10uiMsgStore(ptr noundef nonnull align 8 dereferenceable(108) %9)
  ret void
}

; Function Attrs: mustprogress nounwind uwtable
define linkonce_odr void @_ZN10uiMsgStoreC2E14UIMESSAGE_CODE(ptr noundef nonnull align 8 dereferenceable(108) %0, i32 noundef %1) unnamed_addr #7 comdat align 2 {
  %3 = alloca ptr, align 8
  %4 = alloca i32, align 4
  %5 = alloca i32, align 4
  store ptr %0, ptr %3, align 8, !tbaa !132
  store i32 %1, ptr %4, align 4, !tbaa !32
  %6 = load ptr, ptr %3, align 8
  call void @llvm.lifetime.start.p0(i64 4, ptr %5) #11
  store i32 0, ptr %5, align 4, !tbaa !87
  br label %7

7:                                                ; preds = %17, %2
  %8 = load i32, ptr %5, align 4, !tbaa !87
  %9 = zext i32 %8 to i64
  %10 = icmp ult i64 %9, 8
  br i1 %10, label %12, label %11

11:                                               ; preds = %7
  call void @llvm.lifetime.end.p0(i64 4, ptr %5) #11
  br label %20

12:                                               ; preds = %7
  %13 = getelementptr inbounds nuw %class.uiMsgStore, ptr %6, i32 0, i32 0
  %14 = load i32, ptr %5, align 4, !tbaa !87
  %15 = zext i32 %14 to i64
  %16 = getelementptr inbounds nuw [8 x ptr], ptr %13, i64 0, i64 %15
  store ptr @.str.3, ptr %16, align 8, !tbaa !8
  br label %17

17:                                               ; preds = %12
  %18 = load i32, ptr %5, align 4, !tbaa !87
  %19 = add i32 %18, 1
  store i32 %19, ptr %5, align 4, !tbaa !87
  br label %7, !llvm.loop !134

20:                                               ; preds = %11
  %21 = getelementptr inbounds nuw %class.uiMsgStore, ptr %6, i32 0, i32 1
  %22 = getelementptr inbounds [8 x i32], ptr %21, i64 0, i64 0
  call void @llvm.memset.p0.i64(ptr align 8 %22, i8 0, i64 32, i1 false)
  %23 = getelementptr inbounds nuw %class.uiMsgStore, ptr %6, i32 0, i32 2
  store i32 0, ptr %23, align 8, !tbaa !135
  %24 = getelementptr inbounds nuw %class.uiMsgStore, ptr %6, i32 0, i32 3
  store i32 0, ptr %24, align 4, !tbaa !137
  %25 = load i32, ptr %4, align 4, !tbaa !32
  %26 = getelementptr inbounds nuw %class.uiMsgStore, ptr %6, i32 0, i32 4
  store i32 %25, ptr %26, align 8, !tbaa !138
  ret void
}

; Function Attrs: mustprogress uwtable
define linkonce_odr void @_Z5uiMsgIJEEv14UIMESSAGE_CODEDpOT_(i32 noundef %0) #0 comdat {
  %2 = alloca i32, align 4
  %3 = alloca %class.uiMsgStore, align 8
  store i32 %0, ptr %2, align 4, !tbaa !32
  call void @llvm.lifetime.start.p0(i64 112, ptr %3) #11
  %4 = load i32, ptr %2, align 4, !tbaa !32
  call void @_ZN10uiMsgStoreC2E14UIMESSAGE_CODE(ptr noundef nonnull align 8 dereferenceable(108) %3, i32 noundef %4)
  call void @_Z9uiMsgBaseR10uiMsgStore(ptr noundef nonnull align 8 dereferenceable(108) %3)
  call void @_ZN10uiMsgStore3MsgEv(ptr noundef nonnull align 8 dereferenceable(108) %3)
  call void @llvm.lifetime.end.p0(i64 112, ptr %3) #11
  ret void
}

; Function Attrs: mustprogress uwtable
define linkonce_odr void @_Z5uiMsgIJRPwEEv14UIMESSAGE_CODEDpOT_(i32 noundef %0, ptr noundef nonnull align 8 dereferenceable(8) %1) #0 comdat {
  %3 = alloca i32, align 4
  %4 = alloca ptr, align 8
  %5 = alloca %class.uiMsgStore, align 8
  store i32 %0, ptr %3, align 4, !tbaa !32
  store ptr %1, ptr %4, align 8, !tbaa !34
  call void @llvm.lifetime.start.p0(i64 112, ptr %5) #11
  %6 = load i32, ptr %3, align 4, !tbaa !32
  call void @_ZN10uiMsgStoreC2E14UIMESSAGE_CODE(ptr noundef nonnull align 8 dereferenceable(108) %5, i32 noundef %6)
  %7 = load ptr, ptr %4, align 8, !tbaa !34
  call void @_Z9uiMsgBaseIRPwJEEvR10uiMsgStoreOT_DpOT0_(ptr noundef nonnull align 8 dereferenceable(108) %5, ptr noundef nonnull align 8 dereferenceable(8) %7)
  call void @_ZN10uiMsgStore3MsgEv(ptr noundef nonnull align 8 dereferenceable(108) %5)
  call void @llvm.lifetime.end.p0(i64 112, ptr %5) #11
  ret void
}

; Function Attrs: mustprogress uwtable
define noundef zeroext i1 @_Z15ExtractHardlinkP11CommandDataPwS1_m(ptr noundef %0, ptr noundef %1, ptr noundef %2, i64 noundef %3) #0 {
  %5 = alloca i1, align 1
  %6 = alloca ptr, align 8
  %7 = alloca ptr, align 8
  %8 = alloca ptr, align 8
  %9 = alloca i64, align 8
  %10 = alloca [2048 x i8], align 16
  %11 = alloca [2048 x i8], align 16
  %12 = alloca i8, align 1
  store ptr %0, ptr %6, align 8, !tbaa !3
  store ptr %1, ptr %7, align 8, !tbaa !8
  store ptr %2, ptr %8, align 8, !tbaa !8
  store i64 %3, ptr %9, align 8, !tbaa !10
  %13 = load ptr, ptr %8, align 8, !tbaa !8
  %14 = call noundef zeroext i1 @_Z9FileExistPKw(ptr noundef %13)
  br i1 %14, label %16, label %15

15:                                               ; preds = %4
  call void @_Z5uiMsgIJRPwEEv14UIMESSAGE_CODEDpOT_(i32 noundef 22, ptr noundef nonnull align 8 dereferenceable(8) %7)
  call void @_Z5uiMsgIJEEv14UIMESSAGE_CODEDpOT_(i32 noundef 23)
  call void @_ZN12ErrorHandler12SetErrorCodeE8RAR_EXIT(ptr noundef nonnull align 4 dereferenceable(14) @ErrHandler, i32 noundef 9)
  store i1 false, ptr %5, align 1
  br label %40

16:                                               ; preds = %4
  %17 = load ptr, ptr %7, align 8, !tbaa !8
  %18 = load ptr, ptr %6, align 8, !tbaa !3
  %19 = getelementptr inbounds nuw %class.RAROptions, ptr %18, i32 0, i32 33
  %20 = load i8, ptr %19, align 1, !tbaa !12, !range !29, !noundef !30
  %21 = trunc i8 %20 to i1
  %22 = call noundef zeroext i1 @_Z10CreatePathPKwbb(ptr noundef %17, i1 noundef zeroext true, i1 noundef zeroext %21)
  call void @llvm.lifetime.start.p0(i64 2048, ptr %10) #11
  call void @llvm.lifetime.start.p0(i64 2048, ptr %11) #11
  %23 = load ptr, ptr %8, align 8, !tbaa !8
  %24 = getelementptr inbounds [2048 x i8], ptr %10, i64 0, i64 0
  %25 = call noundef zeroext i1 @_Z10WideToCharPKwPcm(ptr noundef %23, ptr noundef %24, i64 noundef 2048)
  %26 = load ptr, ptr %7, align 8, !tbaa !8
  %27 = getelementptr inbounds [2048 x i8], ptr %11, i64 0, i64 0
  %28 = call noundef zeroext i1 @_Z10WideToCharPKwPcm(ptr noundef %26, ptr noundef %27, i64 noundef 2048)
  call void @llvm.lifetime.start.p0(i64 1, ptr %12) #11
  %29 = getelementptr inbounds [2048 x i8], ptr %10, i64 0, i64 0
  %30 = getelementptr inbounds [2048 x i8], ptr %11, i64 0, i64 0
  %31 = call i32 @link(ptr noundef %29, ptr noundef %30) #11
  %32 = icmp eq i32 %31, 0
  %33 = zext i1 %32 to i8
  store i8 %33, ptr %12, align 1, !tbaa !31
  %34 = load i8, ptr %12, align 1, !tbaa !31, !range !29, !noundef !30
  %35 = trunc i8 %34 to i1
  br i1 %35, label %37, label %36

36:                                               ; preds = %16
  call void @_Z5uiMsgIJRPwEEv14UIMESSAGE_CODEDpOT_(i32 noundef 22, ptr noundef nonnull align 8 dereferenceable(8) %7)
  call void @_ZN12ErrorHandler9SysErrMsgEv(ptr noundef nonnull align 4 dereferenceable(14) @ErrHandler)
  call void @_ZN12ErrorHandler12SetErrorCodeE8RAR_EXIT(ptr noundef nonnull align 4 dereferenceable(14) @ErrHandler, i32 noundef 9)
  br label %37

37:                                               ; preds = %36, %16
  %38 = load i8, ptr %12, align 1, !tbaa !31, !range !29, !noundef !30
  %39 = trunc i8 %38 to i1
  store i1 %39, ptr %5, align 1
  call void @llvm.lifetime.end.p0(i64 1, ptr %12) #11
  call void @llvm.lifetime.end.p0(i64 2048, ptr %11) #11
  call void @llvm.lifetime.end.p0(i64 2048, ptr %10) #11
  br label %40

40:                                               ; preds = %37, %15
  %41 = load i1, ptr %5, align 1
  ret i1 %41
}