; Function Attrs: mustprogress uwtable
define noundef zeroext i1 @_Z15ExtractHardlinkP11CommandDataPwS1_m(ptr noundef readonly captures(none) %0, ptr noundef %1, ptr noundef %2, i64 noundef %3) local_unnamed_addr #0 {
  %5 = alloca %class.uiMsgStore, align 8
  %6 = alloca %class.uiMsgStore, align 8
  %7 = alloca %class.uiMsgStore, align 8
  %8 = alloca [2048 x i8], align 16
  %9 = alloca [2048 x i8], align 16
  %10 = tail call noundef zeroext i1 @_Z9FileExistPKw(ptr noundef %2)
  br i1 %10, label %21, label %11

11:                                               ; preds = %4
  call void @llvm.lifetime.start.p0(i64 112, ptr nonnull %7) #13
  br label %12

12:                                               ; preds = %12, %11
  %indvars.iv.i.i = phi i64 [ 0, %11 ], [ %indvars.iv.next.i.i, %12 ]
  %13 = getelementptr inbounds nuw [8 x ptr], ptr %7, i64 0, i64 %indvars.iv.i.i
  store ptr @.str.3, ptr %13, align 8, !tbaa !3
  %indvars.iv.next.i.i = add nuw nsw i64 %indvars.iv.i.i, 1
  %exitcond.not.i.i = icmp eq i64 %indvars.iv.next.i.i, 8
  br i1 %exitcond.not.i.i, label %_Z5uiMsgIJRPwEEv14UIMESSAGE_CODEDpOT_.exit, label %12, !llvm.loop !8

_Z5uiMsgIJRPwEEv14UIMESSAGE_CODEDpOT_.exit:       ; preds = %12
  %14 = getelementptr inbounds nuw i8, ptr %7, i64 64
  %15 = getelementptr inbounds nuw i8, ptr %7, i64 104
  call void @llvm.memset.p0.i64(ptr noundef nonnull align 8 dereferenceable(40) %14, i8 0, i64 40, i1 false)
  store i32 22, ptr %15, align 8, !tbaa !10
  %16 = getelementptr inbounds nuw i8, ptr %7, i64 96
  store i32 1, ptr %16, align 8, !tbaa !14
  store ptr %1, ptr %7, align 8, !tbaa !3
  call void @_ZN10uiMsgStore3MsgEv(ptr noundef nonnull align 8 dereferenceable(108) %7)
  call void @llvm.lifetime.end.p0(i64 112, ptr nonnull %7) #13
  call void @llvm.lifetime.start.p0(i64 112, ptr nonnull %6) #13
  br label %17

17:                                               ; preds = %17, %_Z5uiMsgIJRPwEEv14UIMESSAGE_CODEDpOT_.exit
  %indvars.iv.i.i5 = phi i64 [ 0, %_Z5uiMsgIJRPwEEv14UIMESSAGE_CODEDpOT_.exit ], [ %indvars.iv.next.i.i6, %17 ]
  %18 = getelementptr inbounds nuw [8 x ptr], ptr %6, i64 0, i64 %indvars.iv.i.i5
  store ptr @.str.3, ptr %18, align 8, !tbaa !3
  %indvars.iv.next.i.i6 = add nuw nsw i64 %indvars.iv.i.i5, 1
  %exitcond.not.i.i7 = icmp eq i64 %indvars.iv.next.i.i6, 8
  br i1 %exitcond.not.i.i7, label %_Z5uiMsgIJEEv14UIMESSAGE_CODEDpOT_.exit, label %17, !llvm.loop !8

_Z5uiMsgIJEEv14UIMESSAGE_CODEDpOT_.exit:          ; preds = %17
  %19 = getelementptr inbounds nuw i8, ptr %6, i64 64
  %20 = getelementptr inbounds nuw i8, ptr %6, i64 104
  call void @llvm.memset.p0.i64(ptr noundef nonnull align 8 dereferenceable(40) %19, i8 0, i64 40, i1 false)
  store i32 23, ptr %20, align 8, !tbaa !10
  call void @_ZN10uiMsgStore3MsgEv(ptr noundef nonnull align 8 dereferenceable(108) %6)
  call void @llvm.lifetime.end.p0(i64 112, ptr nonnull %6) #13
  call void @_ZN12ErrorHandler12SetErrorCodeE8RAR_EXIT(ptr noundef nonnull align 4 dereferenceable(14) @ErrHandler, i32 noundef 9)
  br label %37

21:                                               ; preds = %4
  %22 = getelementptr inbounds nuw i8, ptr %0, i64 57431
  %23 = load i8, ptr %22, align 1, !tbaa !15, !range !32, !noundef !33
  %24 = trunc nuw i8 %23 to i1
  %25 = tail call noundef zeroext i1 @_Z10CreatePathPKwbb(ptr noundef %1, i1 noundef zeroext true, i1 noundef zeroext %24)
  call void @llvm.lifetime.start.p0(i64 2048, ptr nonnull %8) #13
  call void @llvm.lifetime.start.p0(i64 2048, ptr nonnull %9) #13
  %26 = call noundef zeroext i1 @_Z10WideToCharPKwPcm(ptr noundef %2, ptr noundef nonnull %8, i64 noundef 2048)
  %27 = call noundef zeroext i1 @_Z10WideToCharPKwPcm(ptr noundef %1, ptr noundef nonnull %9, i64 noundef 2048)
  %28 = call i32 @link(ptr noundef nonnull %8, ptr noundef nonnull %9) #13
  %29 = icmp eq i32 %28, 0
  br i1 %29, label %36, label %30

30:                                               ; preds = %21
  call void @llvm.lifetime.start.p0(i64 112, ptr nonnull %5) #13
  br label %31

31:                                               ; preds = %31, %30
  %indvars.iv.i.i8 = phi i64 [ 0, %30 ], [ %indvars.iv.next.i.i9, %31 ]
  %32 = getelementptr inbounds nuw [8 x ptr], ptr %5, i64 0, i64 %indvars.iv.i.i8
  store ptr @.str.3, ptr %32, align 8, !tbaa !3
  %indvars.iv.next.i.i9 = add nuw nsw i64 %indvars.iv.i.i8, 1
  %exitcond.not.i.i10 = icmp eq i64 %indvars.iv.next.i.i9, 8
  br i1 %exitcond.not.i.i10, label %_Z5uiMsgIJRPwEEv14UIMESSAGE_CODEDpOT_.exit11, label %31, !llvm.loop !8

_Z5uiMsgIJRPwEEv14UIMESSAGE_CODEDpOT_.exit11:     ; preds = %31
  %33 = getelementptr inbounds nuw i8, ptr %5, i64 64
  %34 = getelementptr inbounds nuw i8, ptr %5, i64 104
  call void @llvm.memset.p0.i64(ptr noundef nonnull align 8 dereferenceable(40) %33, i8 0, i64 40, i1 false)
  store i32 22, ptr %34, align 8, !tbaa !10
  %35 = getelementptr inbounds nuw i8, ptr %5, i64 96
  store i32 1, ptr %35, align 8, !tbaa !14
  store ptr %1, ptr %5, align 8, !tbaa !3
  call void @_ZN10uiMsgStore3MsgEv(ptr noundef nonnull align 8 dereferenceable(108) %5)
  call void @llvm.lifetime.end.p0(i64 112, ptr nonnull %5) #13
  call void @_ZN12ErrorHandler9SysErrMsgEv(ptr noundef nonnull align 4 dereferenceable(14) @ErrHandler)
  call void @_ZN12ErrorHandler12SetErrorCodeE8RAR_EXIT(ptr noundef nonnull align 4 dereferenceable(14) @ErrHandler, i32 noundef 9)
  br label %36

36:                                               ; preds = %_Z5uiMsgIJRPwEEv14UIMESSAGE_CODEDpOT_.exit11, %21
  call void @llvm.lifetime.end.p0(i64 2048, ptr nonnull %9) #13
  call void @llvm.lifetime.end.p0(i64 2048, ptr nonnull %8) #13
  br label %37

37:                                               ; preds = %36, %_Z5uiMsgIJEEv14UIMESSAGE_CODEDpOT_.exit
  %.0 = phi i1 [ %29, %36 ], [ false, %_Z5uiMsgIJEEv14UIMESSAGE_CODEDpOT_.exit ]
  ret i1 %.0
}